target datalayout = "e-m:e-p270:32:32-p271:32:32-p272:64:64-i64:64-i128:128-f80:128-n8:16:32:64-S128"
target triple = "x86_64-pc-linux-gnu"

%struct.TrueMotion1Context = type { ptr, ptr, ptr, i32, ptr, i32, ptr, i32, i32, i32, i32, i32, i32, [1024 x i32], [1024 x i32], [1024 x i32], [1024 x i32], i32, i32, i32, i32, [8 x i16], [8 x i16], [8 x i16], [8 x i16], i32, i32, ptr, i32 }

; Function Attrs: nounwind uwtable
define internal i32 @make_cdt16_entry(i32 noundef %0, i32 noundef %1, ptr noundef %2) #1 {
  %4 = alloca i32, align 4
  %5 = alloca i32, align 4
  %6 = alloca ptr, align 8
  %7 = alloca i32, align 4
  %8 = alloca i32, align 4
  %9 = alloca i32, align 4
  store i32 %0, ptr %4, align 4, !tbaa !45
  store i32 %1, ptr %5, align 4, !tbaa !45
  store ptr %2, ptr %6, align 8, !tbaa !92
  call void @llvm.lifetime.start.p0(i64 4, ptr %7) #6
  call void @llvm.lifetime.start.p0(i64 4, ptr %8) #6
  call void @llvm.lifetime.start.p0(i64 4, ptr %9) #6
  %10 = load ptr, ptr %6, align 8, !tbaa !92
  %11 = load i32, ptr %5, align 4, !tbaa !45
  %12 = sext i32 %11 to i64
  %13 = getelementptr inbounds i16, ptr %10, i64 %12
  %14 = load i16, ptr %13, align 2, !tbaa !93
  %15 = sext i16 %14 to i32
  store i32 %15, ptr %8, align 4, !tbaa !45
  %16 = load ptr, ptr %6, align 8, !tbaa !92
  %17 = load i32, ptr %4, align 4, !tbaa !45
  %18 = sext i32 %17 to i64
  %19 = getelementptr inbounds i16, ptr %16, i64 %18
  %20 = load i16, ptr %19, align 2, !tbaa !93
  %21 = sext i16 %20 to i32
  %22 = shl i32 %21, 11
  store i32 %22, ptr %7, align 4, !tbaa !45
  %23 = load i32, ptr %8, align 4, !tbaa !45
  %24 = load i32, ptr %7, align 4, !tbaa !45
  %25 = add nsw i32 %23, %24
  store i32 %25, ptr %9, align 4, !tbaa !45
  %26 = load i32, ptr %9, align 4, !tbaa !45
  %27 = load i32, ptr %9, align 4, !tbaa !45
  %28 = mul nsw i32 %27, 65536
  %29 = add nsw i32 %26, %28
  %30 = mul nsw i32 %29, 2
  call void @llvm.lifetime.end.p0(i64 4, ptr %9) #6
  call void @llvm.lifetime.end.p0(i64 4, ptr %8) #6
  call void @llvm.lifetime.end.p0(i64 4, ptr %7) #6
  ret i32 %30
}

; Function Attrs: nounwind uwtable
define internal i32 @make_ydt16_entry(i32 noundef %0, i32 noundef %1, ptr noundef %2) #1 {
  %4 = alloca i32, align 4
  %5 = alloca i32, align 4
  %6 = alloca ptr, align 8
  %7 = alloca i32, align 4
  %8 = alloca i32, align 4
  store i32 %0, ptr %4, align 4, !tbaa !45
  store i32 %1, ptr %5, align 4, !tbaa !45
  store ptr %2, ptr %6, align 8, !tbaa !92
  call void @llvm.lifetime.start.p0(i64 4, ptr %7) #6
  call void @llvm.lifetime.start.p0(i64 4, ptr %8) #6
  %9 = load ptr, ptr %6, align 8, !tbaa !92
  %10 = load i32, ptr %4, align 4, !tbaa !45
  %11 = sext i32 %10 to i64
  %12 = getelementptr inbounds i16, ptr %9, i64 %11
  %13 = load i16, ptr %12, align 2, !tbaa !93
  %14 = sext i16 %13 to i32
  store i32 %14, ptr %7, align 4, !tbaa !45
  %15 = load i32, ptr %7, align 4, !tbaa !45
  %16 = shl i32 %15, 6
  %17 = load i32, ptr %7, align 4, !tbaa !45
  %18 = shl i32 %17, 11
  %19 = add nsw i32 %16, %18
  %20 = load i32, ptr %7, align 4, !tbaa !45
  %21 = add nsw i32 %20, %19
  store i32 %21, ptr %7, align 4, !tbaa !45
  %22 = load ptr, ptr %6, align 8, !tbaa !92
  %23 = load i32, ptr %5, align 4, !tbaa !45
  %24 = sext i32 %23 to i64
  %25 = getelementptr inbounds i16, ptr %22, i64 %24
  %26 = load i16, ptr %25, align 2, !tbaa !93
  %27 = sext i16 %26 to i32
  store i32 %27, ptr %8, align 4, !tbaa !45
  %28 = load i32, ptr %8, align 4, !tbaa !45
  %29 = shl i32 %28, 6
  %30 = load i32, ptr %8, align 4, !tbaa !45
  %31 = shl i32 %30, 11
  %32 = add nsw i32 %29, %31
  %33 = load i32, ptr %8, align 4, !tbaa !45
  %34 = add nsw i32 %33, %32
  store i32 %34, ptr %8, align 4, !tbaa !45
  %35 = load i32, ptr %7, align 4, !tbaa !45
  %36 = load i32, ptr %8, align 4, !tbaa !45
  %37 = shl i32 %36, 16
  %38 = add nsw i32 %35, %37
  %39 = shl i32 %38, 1
  call void @llvm.lifetime.end.p0(i64 4, ptr %8) #6
  call void @llvm.lifetime.end.p0(i64 4, ptr %7) #6
  ret i32 %39
}

; Function Attrs: nounwind uwtable
define internal void @gen_vector_table16(ptr noundef %0, ptr noundef %1) #1 {
  %3 = alloca ptr, align 8
  %4 = alloca ptr, align 8
  %5 = alloca i32, align 4
  %6 = alloca i32, align 4
  %7 = alloca i32, align 4
  %8 = alloca i8, align 1
  store ptr %0, ptr %3, align 8, !tbaa !29
  store ptr %1, ptr %4, align 8, !tbaa !43
  call void @llvm.lifetime.start.p0(i64 4, ptr %5) #6
  call void @llvm.lifetime.start.p0(i64 4, ptr %6) #6
  call void @llvm.lifetime.start.p0(i64 4, ptr %7) #6
  call void @llvm.lifetime.start.p0(i64 1, ptr %8) #6
  store i32 0, ptr %6, align 4, !tbaa !45
  br label %9

9:                                                ; preds = %86, %2
  %10 = load i32, ptr %6, align 4, !tbaa !45
  %11 = icmp slt i32 %10, 1024
  br i1 %11, label %12, label %89

12:                                               ; preds = %9
  %13 = load ptr, ptr %4, align 8, !tbaa !43
  %14 = getelementptr inbounds nuw i8, ptr %13, i32 1
  store ptr %14, ptr %4, align 8, !tbaa !43
  %15 = load i8, ptr %13, align 1, !tbaa !51
  %16 = zext i8 %15 to i32
  %17 = sdiv i32 %16, 2
  store i32 %17, ptr %5, align 4, !tbaa !45
  store i32 0, ptr %7, align 4, !tbaa !45
  br label %18

18:                                               ; preds = %62, %12
  %19 = load i32, ptr %7, align 4, !tbaa !45
  %20 = load i32, ptr %5, align 4, !tbaa !45
  %21 = icmp slt i32 %19, %20
  br i1 %21, label %22, label %65

22:                                               ; preds = %18
  %23 = load ptr, ptr %4, align 8, !tbaa !43
  %24 = getelementptr inbounds nuw i8, ptr %23, i32 1
  store ptr %24, ptr %4, align 8, !tbaa !43
  %25 = load i8, ptr %23, align 1, !tbaa !51
  store i8 %25, ptr %8, align 1, !tbaa !51
  %26 = load i8, ptr %8, align 1, !tbaa !51
  %27 = zext i8 %26 to i32
  %28 = ashr i32 %27, 4
  %29 = load i8, ptr %8, align 1, !tbaa !51
  %30 = zext i8 %29 to i32
  %31 = and i32 %30, 15
  %32 = load ptr, ptr %3, align 8, !tbaa !29
  %33 = getelementptr inbounds nuw %struct.TrueMotion1Context, ptr %32, i32 0, i32 21
  %34 = getelementptr inbounds [8 x i16], ptr %33, i64 0, i64 0
  %35 = call i32 @make_ydt16_entry(i32 noundef %28, i32 noundef %31, ptr noundef %34)
  %36 = and i32 -2, %35
  %37 = load ptr, ptr %3, align 8, !tbaa !29
  %38 = getelementptr inbounds nuw %struct.TrueMotion1Context, ptr %37, i32 0, i32 13
  %39 = load i32, ptr %6, align 4, !tbaa !45
  %40 = load i32, ptr %7, align 4, !tbaa !45
  %41 = add nsw i32 %39, %40
  %42 = sext i32 %41 to i64
  %43 = getelementptr inbounds [1024 x i32], ptr %38, i64 0, i64 %42
  store i32 %36, ptr %43, align 4, !tbaa !45
  %44 = load i8, ptr %8, align 1, !tbaa !51
  %45 = zext i8 %44 to i32
  %46 = ashr i32 %45, 4
  %47 = load i8, ptr %8, align 1, !tbaa !51
  %48 = zext i8 %47 to i32
  %49 = and i32 %48, 15
  %50 = load ptr, ptr %3, align 8, !tbaa !29
  %51 = getelementptr inbounds nuw %struct.TrueMotion1Context, ptr %50, i32 0, i32 22
  %52 = getelementptr inbounds [8 x i16], ptr %51, i64 0, i64 0
  %53 = call i32 @make_cdt16_entry(i32 noundef %46, i32 noundef %49, ptr noundef %52)
  %54 = and i32 -2, %53
  %55 = load ptr, ptr %3, align 8, !tbaa !29
  %56 = getelementptr inbounds nuw %struct.TrueMotion1Context, ptr %55, i32 0, i32 14
  %57 = load i32, ptr %6, align 4, !tbaa !45
  %58 = load i32, ptr %7, align 4, !tbaa !45
  %59 = add nsw i32 %57, %58
  %60 = sext i32 %59 to i64
  %61 = getelementptr inbounds [1024 x i32], ptr %56, i64 0, i64 %60
  store i32 %54, ptr %61, align 4, !tbaa !45
  br label %62

62:                                               ; preds = %22
  %63 = load i32, ptr %7, align 4, !tbaa !45
  %64 = add nsw i32 %63, 1
  store i32 %64, ptr %7, align 4, !tbaa !45
  br label %18, !llvm.loop !99

65:                                               ; preds = %18
  %66 = load ptr, ptr %3, align 8, !tbaa !29
  %67 = getelementptr inbounds nuw %struct.TrueMotion1Context, ptr %66, i32 0, i32 13
  %68 = load i32, ptr %6, align 4, !tbaa !45
  %69 = load i32, ptr %7, align 4, !tbaa !45
  %70 = sub nsw i32 %69, 1
  %71 = add nsw i32 %68, %70
  %72 = sext i32 %71 to i64
  %73 = getelementptr inbounds [1024 x i32], ptr %67, i64 0, i64 %72
  %74 = load i32, ptr %73, align 4, !tbaa !45
  %75 = or i32 %74, 1
  store i32 %75, ptr %73, align 4, !tbaa !45
  %76 = load ptr, ptr %3, align 8, !tbaa !29
  %77 = getelementptr inbounds nuw %struct.TrueMotion1Context, ptr %76, i32 0, i32 14
  %78 = load i32, ptr %6, align 4, !tbaa !45
  %79 = load i32, ptr %7, align 4, !tbaa !45
  %80 = sub nsw i32 %79, 1
  %81 = add nsw i32 %78, %80
  %82 = sext i32 %81 to i64
  %83 = getelementptr inbounds [1024 x i32], ptr %77, i64 0, i64 %82
  %84 = load i32, ptr %83, align 4, !tbaa !45
  %85 = or i32 %84, 1
  store i32 %85, ptr %83, align 4, !tbaa !45
  br label %86

86:                                               ; preds = %65
  %87 = load i32, ptr %6, align 4, !tbaa !45
  %88 = add nsw i32 %87, 4
  store i32 %88, ptr %6, align 4, !tbaa !45
  br label %9, !llvm.loop !100

89:                                               ; preds = %9
  call void @llvm.lifetime.end.p0(i64 1, ptr %8) #6
  call void @llvm.lifetime.end.p0(i64 4, ptr %7) #6
  call void @llvm.lifetime.end.p0(i64 4, ptr %6) #6
  call void @llvm.lifetime.end.p0(i64 4, ptr %5) #6
  ret void
}